target datalayout = "e-m:e-p270:32:32-p271:32:32-p272:64:64-i64:64-i128:128-f80:128-n8:16:32:64-S128"
target triple = "x86_64-pc-linux-gnu"

%struct.st_str_end_key = type { ptr, ptr }

; Function Attrs: nounwind uwtable
define dso_local i32 @onig_st_insert_strend(ptr noundef %0, ptr noundef %1, ptr noundef %2, i64 noundef %3) #0 {
  %5 = alloca i32, align 4
  %6 = alloca ptr, align 8
  %7 = alloca ptr, align 8
  %8 = alloca ptr, align 8
  %9 = alloca i64, align 8
  %10 = alloca ptr, align 8
  %11 = alloca i32, align 4
  %12 = alloca i32, align 4
  store ptr %0, ptr %6, align 8, !tbaa !9
  store ptr %1, ptr %7, align 8, !tbaa !4
  store ptr %2, ptr %8, align 8, !tbaa !4
  store i64 %3, ptr %9, align 8, !tbaa !22
  call void @llvm.lifetime.start.p0(i64 8, ptr %10) #8
  call void @llvm.lifetime.start.p0(i64 4, ptr %11) #8
  %13 = call noalias ptr @malloc(i64 noundef 16) #9
  store ptr %13, ptr %10, align 8, !tbaa !9
  %14 = load ptr, ptr %10, align 8, !tbaa !9
  %15 = icmp eq ptr %14, null
  br i1 %15, label %16, label %17

16:                                               ; preds = %4
  store i32 -5, ptr %5, align 4
  store i32 1, ptr %12, align 4
  br label %35

17:                                               ; preds = %4
  %18 = load ptr, ptr %7, align 8, !tbaa !4
  %19 = load ptr, ptr %10, align 8, !tbaa !9
  %20 = getelementptr inbounds nuw %struct.st_str_end_key, ptr %19, i32 0, i32 0
  store ptr %18, ptr %20, align 8, !tbaa !17
  %21 = load ptr, ptr %8, align 8, !tbaa !4
  %22 = load ptr, ptr %10, align 8, !tbaa !9
  %23 = getelementptr inbounds nuw %struct.st_str_end_key, ptr %22, i32 0, i32 1
  store ptr %21, ptr %23, align 8, !tbaa !15
  %24 = load ptr, ptr %6, align 8, !tbaa !9
  %25 = load ptr, ptr %10, align 8, !tbaa !9
  %26 = ptrtoint ptr %25 to i64
  %27 = load i64, ptr %9, align 8, !tbaa !22
  %28 = call i32 @onig_st_insert(ptr noundef %24, i64 noundef %26, i64 noundef %27)
  store i32 %28, ptr %11, align 4, !tbaa !10
  %29 = load i32, ptr %11, align 4, !tbaa !10
  %30 = icmp ne i32 %29, 0
  br i1 %30, label %31, label %33

31:                                               ; preds = %17
  %32 = load ptr, ptr %10, align 8, !tbaa !9
  call void @free(ptr noundef %32) #8
  br label %33

33:                                               ; preds = %31, %17
  %34 = load i32, ptr %11, align 4, !tbaa !10
  store i32 %34, ptr %5, align 4
  store i32 1, ptr %12, align 4
  br label %35

35:                                               ; preds = %33, %16
  call void @llvm.lifetime.end.p0(i64 4, ptr %11) #8
  call void @llvm.lifetime.end.p0(i64 8, ptr %10) #8
  %36 = load i32, ptr %5, align 4
  ret i32 %36
}