; Function Attrs: nounwind uwtable
define dso_local i32 @onig_st_insert_strend(ptr noundef %0, ptr noundef %1, ptr noundef %2, i64 noundef %3) local_unnamed_addr #2 {
  %5 = tail call noalias dereferenceable_or_null(16) ptr @malloc(i64 noundef 16) #26
  %6 = icmp eq ptr %5, null
  br i1 %6, label %12, label %7

7:                                                ; preds = %4
  store ptr %1, ptr %5, align 8, !tbaa !16
  %8 = getelementptr inbounds nuw i8, ptr %5, i64 8
  store ptr %2, ptr %8, align 8, !tbaa !13
  %9 = ptrtoint ptr %5 to i64
  %10 = tail call i32 @onig_st_insert(ptr noundef %0, i64 noundef %9, i64 noundef %3) #25
  %.not = icmp eq i32 %10, 0
  br i1 %.not, label %12, label %11

11:                                               ; preds = %7
  tail call void @free(ptr noundef nonnull %5) #25
  br label %12

12:                                               ; preds = %7, %11, %4
  %.0 = phi i32 [ -5, %4 ], [ %10, %11 ], [ 0, %7 ]
  ret i32 %.0
}